; Function Attrs: mustprogress uwtable
define hidden void @_ZNK4cvc58internal6theory2bv7BBProof9getBBTermENS0_12NodeTemplateILb0EEERSt6vectorINS4_ILb1EEESaIS7_EE(ptr nocapture noundef nonnull readonly align 8 dereferenceable(105) %this, ptr nocapture noundef readonly %node, ptr noundef nonnull align 8 dereferenceable(24) %bits) local_unnamed_addr #3 align 2 personality ptr @__gxx_personality_v0 {
entry:
  %agg.tmp = alloca %"class.cvc5::internal::NodeTemplate", align 8
  %d_bb = getelementptr inbounds i8, ptr %this, i64 16
  %0 = load ptr, ptr %d_bb, align 8
  %1 = load ptr, ptr %node, align 8
  store ptr %1, ptr %agg.tmp, align 8
  call void @_ZNK4cvc58internal6theory2bv11TBitblasterINS0_12NodeTemplateILb1EEEE9getBBTermENS4_ILb0EEERSt6vectorIS5_SaIS5_EE(ptr noundef nonnull align 8 dereferenceable(5976) %0, ptr noundef nonnull %agg.tmp, ptr noundef nonnull align 8 dereferenceable(24) %bits)
  ret void
}